; Function Attrs: mustprogress uwtable
define hidden noundef i32 @_ZN4cvc58internal6theory2bv5utils11isPow2ConstENS0_12NodeTemplateILb0EEERb(ptr noundef readonly captures(none) %0, ptr noundef nonnull writeonly align 1 captures(none) dereferenceable(1) %1) local_unnamed_addr #3 personality ptr @__gxx_personality_v0 {
  %3 = alloca %"class.cvc5::internal::BitVector", align 8
  %4 = alloca %"class.cvc5::internal::BitVector", align 8
  %5 = load ptr, ptr %0, align 8, !tbaa !10
  %6 = getelementptr inbounds nuw i8, ptr %5, i64 8
  %7 = load i64, ptr %6, align 8
  %8 = and i64 %7, 1023
  %.not = icmp eq i64 %8, 88
  br i1 %.not, label %9, label %45

9:                                                ; preds = %2
  call void @llvm.lifetime.start.p0(i64 24, ptr nonnull %3) #22
  %10 = tail call noundef nonnull align 8 dereferenceable(24) ptr @_ZNK4cvc58internal4expr9NodeValue8getConstINS0_9BitVectorEEERKT_v(ptr noundef nonnull align 8 dereferenceable(24) %5)
  %11 = load i32, ptr %10, align 8, !tbaa !52
  store i32 %11, ptr %3, align 8, !tbaa !52
  %12 = getelementptr inbounds nuw i8, ptr %3, i64 8
  %13 = getelementptr inbounds nuw i8, ptr %10, i64 8
  call void @__gmpz_init_set(ptr noundef nonnull align 8 dereferenceable(16) %12, ptr noundef nonnull align 8 dereferenceable(16) %13)
  %14 = invoke noundef i32 @_ZNK4cvc58internal9BitVector6isPow2Ev(ptr noundef nonnull align 8 dereferenceable(24) %3)
          to label %15 unwind label %17

15:                                               ; preds = %9
  %.not14 = icmp eq i32 %14, 0
  br i1 %.not14, label %19, label %16

16:                                               ; preds = %15
  store i8 0, ptr %1, align 1, !tbaa !56
  br label %37

17:                                               ; preds = %9
  %18 = landingpad { ptr, i32 }
          cleanup
  br label %41

19:                                               ; preds = %15
  call void @llvm.lifetime.start.p0(i64 24, ptr nonnull %4) #22
  invoke void @_ZN4cvc58internalngERKNS0_9BitVectorE(ptr dead_on_unwind nonnull writable sret(%"class.cvc5::internal::BitVector") align 8 %4, ptr noundef nonnull align 8 dereferenceable(24) %3)
          to label %20 unwind label %24

20:                                               ; preds = %19
  %21 = invoke noundef i32 @_ZNK4cvc58internal9BitVector6isPow2Ev(ptr noundef nonnull align 8 dereferenceable(24) %4)
          to label %22 unwind label %26

22:                                               ; preds = %20
  %.not17 = icmp eq i32 %21, 0
  br i1 %.not17, label %32, label %23

23:                                               ; preds = %22
  store i8 1, ptr %1, align 1, !tbaa !56
  br label %32

24:                                               ; preds = %19
  %25 = landingpad { ptr, i32 }
          cleanup
  br label %_ZN4cvc58internal9BitVectorD2Ev.exit

26:                                               ; preds = %20
  %27 = landingpad { ptr, i32 }
          cleanup
  %28 = getelementptr inbounds nuw i8, ptr %4, i64 8
  invoke void @__gmpz_clear(ptr noundef nonnull align 8 dereferenceable(16) %28)
          to label %_ZN4cvc58internal9BitVectorD2Ev.exit unwind label %29

29:                                               ; preds = %26
  %30 = landingpad { ptr, i32 }
          catch ptr null
  %31 = extractvalue { ptr, i32 } %30, 0
  call void @__clang_call_terminate(ptr %31) #23
  unreachable

32:                                               ; preds = %22, %23
  %33 = getelementptr inbounds nuw i8, ptr %4, i64 8
  invoke void @__gmpz_clear(ptr noundef nonnull align 8 dereferenceable(16) %33)
          to label %_ZN4cvc58internal9BitVectorD2Ev.exit18 unwind label %34

34:                                               ; preds = %32
  %35 = landingpad { ptr, i32 }
          catch ptr null
  %36 = extractvalue { ptr, i32 } %35, 0
  call void @__clang_call_terminate(ptr %36) #23
  unreachable

_ZN4cvc58internal9BitVectorD2Ev.exit18:           ; preds = %32
  call void @llvm.lifetime.end.p0(i64 24, ptr nonnull %4) #22
  br label %37

_ZN4cvc58internal9BitVectorD2Ev.exit:             ; preds = %26, %24
  %.pn = phi { ptr, i32 } [ %25, %24 ], [ %27, %26 ]
  call void @llvm.lifetime.end.p0(i64 24, ptr nonnull %4) #22
  br label %41

37:                                               ; preds = %_ZN4cvc58internal9BitVectorD2Ev.exit18, %16
  %.111 = phi i32 [ %14, %16 ], [ %21, %_ZN4cvc58internal9BitVectorD2Ev.exit18 ]
  invoke void @__gmpz_clear(ptr noundef nonnull align 8 dereferenceable(16) %12)
          to label %_ZN4cvc58internal9BitVectorD2Ev.exit19 unwind label %38

38:                                               ; preds = %37
  %39 = landingpad { ptr, i32 }
          catch ptr null
  %40 = extractvalue { ptr, i32 } %39, 0
  call void @__clang_call_terminate(ptr %40) #23
  unreachable

_ZN4cvc58internal9BitVectorD2Ev.exit19:           ; preds = %37
  call void @llvm.lifetime.end.p0(i64 24, ptr nonnull %3) #22
  br label %45

41:                                               ; preds = %_ZN4cvc58internal9BitVectorD2Ev.exit, %17
  %.pn.pn = phi { ptr, i32 } [ %.pn, %_ZN4cvc58internal9BitVectorD2Ev.exit ], [ %18, %17 ]
  invoke void @__gmpz_clear(ptr noundef nonnull align 8 dereferenceable(16) %12)
          to label %_ZN4cvc58internal9BitVectorD2Ev.exit20 unwind label %42

42:                                               ; preds = %41
  %43 = landingpad { ptr, i32 }
          catch ptr null
  %44 = extractvalue { ptr, i32 } %43, 0
  call void @__clang_call_terminate(ptr %44) #23
  unreachable

_ZN4cvc58internal9BitVectorD2Ev.exit20:           ; preds = %41
  call void @llvm.lifetime.end.p0(i64 24, ptr nonnull %3) #22
  resume { ptr, i32 } %.pn.pn

45:                                               ; preds = %2, %_ZN4cvc58internal9BitVectorD2Ev.exit19
  %.010 = phi i32 [ %.111, %_ZN4cvc58internal9BitVectorD2Ev.exit19 ], [ 0, %2 ]
  ret i32 %.010
}